target datalayout = "e-m:e-p270:32:32-p271:32:32-p272:64:64-i64:64-i128:128-f80:128-n8:16:32:64-S128"
target triple = "x86_64-unknown-linux-gnu"

%struct.TypeInfo = type { ptr, ptr, i64, i64, ptr, ptr, ptr, i8, i64, ptr, ptr, ptr, ptr }
%struct.DisplayOptions = type { i32, i8, i8, i8, i8, i8, i8, i8, i32, %union.anon.11 }
%union.anon.11 = type { %struct.DisplayDBus }
%struct.DisplayDBus = type { ptr, ptr, i8, i8, ptr }

@.str.29 = private unnamed_addr constant [36 x i8] c"dbus: GL rendering is not supported\00", align 1
@dbus_vc_type_info = internal constant %struct.TypeInfo { ptr @.str.30, ptr @.str.31, i64 0, i64 0, ptr null, ptr null, ptr null, i8 0, i64 248, ptr @dbus_vc_class_init, ptr null, ptr null, ptr null }, align 8

; Function Attrs: nounwind sspstrong uwtable
define internal void @early_dbus_init(ptr noundef %opts) #0 {
entry:
  %opts.addr = alloca ptr, align 8
  %mode = alloca i32, align 4
  store ptr %opts, ptr %opts.addr, align 8
  %0 = load ptr, ptr %opts.addr, align 8
  %has_gl = getelementptr inbounds %struct.DisplayOptions, ptr %0, i32 0, i32 7
  %1 = load i8, ptr %has_gl, align 2
  %tobool = trunc i8 %1 to i1
  br i1 %tobool, label %cond.true, label %cond.false

cond.true:                                        ; preds = %entry
  %2 = load ptr, ptr %opts.addr, align 8
  %gl = getelementptr inbounds %struct.DisplayOptions, ptr %2, i32 0, i32 8
  %3 = load i32, ptr %gl, align 4
  br label %cond.end

cond.false:                                       ; preds = %entry
  br label %cond.end

cond.end:                                         ; preds = %cond.false, %cond.true
  %cond = phi i32 [ %3, %cond.true ], [ 0, %cond.false ]
  store i32 %cond, ptr %mode, align 4
  %4 = load i32, ptr %mode, align 4
  %cmp = icmp ne i32 %4, 0
  br i1 %cmp, label %if.then, label %if.end

if.then:                                          ; preds = %cond.end
  call void (ptr, ...) @error_report(ptr noundef @.str.29)
  br label %if.end

if.end:                                           ; preds = %if.then, %cond.end
  %call = call ptr @type_register(ptr noundef @dbus_vc_type_info)
  ret void
}