; Function Attrs: nounwind sspstrong uwtable
define internal void @early_dbus_init(ptr noundef readonly captures(none) %opts) #0 {
entry:
  %has_gl = getelementptr inbounds nuw i8, ptr %opts, i64 10
  %0 = load i8, ptr %has_gl, align 2
  %tobool = trunc i8 %0 to i1
  br i1 %tobool, label %cond.true, label %if.end

cond.true:                                        ; preds = %entry
  %gl = getelementptr inbounds nuw i8, ptr %opts, i64 12
  %1 = load i32, ptr %gl, align 4
  %2 = icmp eq i32 %1, 0
  br i1 %2, label %if.end, label %if.then

if.then:                                          ; preds = %cond.true
  tail call void (ptr, ...) @error_report(ptr noundef nonnull @.str.29) #5
  br label %if.end

if.end:                                           ; preds = %entry, %if.then, %cond.true
  %call = tail call ptr @type_register(ptr noundef nonnull @dbus_vc_type_info) #5
  ret void
}